(dp0
S'dominos'
p1
(S'9911349196'
p2
S'Lionheart96'
p3
tp4
sS'irctc'
p5
(S'MS_Bhatia'
p6
S'rail1234'
p7
tp8
sS'investing.com'
p9
(S'mansimarsingh.bhatia@gmail.com'
p10
S'sherdil1234'
p11
tp12
sS'relishsports'
p13
(g10
S'guns1234567890'
p14
tp15
sS'dropbox'
p16
(g10
S'strongbox1234'
p17
tp18
sS'bses'
p19
(S'151344894'
p20
S'lionheart'
p21
tp22
sS'uplay'
p23
(S'Drake_Ramor'
p24
S'lionheart96'
p25
tp26
sS'steam'
p27
(g24
S'whatarethey150696'
p28
tp29
sS'ncfm'
p30
(S'MansimarBhatia'
p31
S'Lionheart_96'
p32
tp33
s.